(lp0
(I165
VJamieIsDaBaws
p1
tp2
a(I74
Vsdhdgssg
p3
tp4
a(I68
VJamie
p5
tp6
a(I66
VJameh
p7
tp8
a(I49
Vtest
p9
tp10
a(I49
VJamieTanna
p11
tp12
a(I45
VJAMEHH
p13
tp14
a(I41
Vgfdgdfgfdgfd
p15
tp16
a(I26
S''
p17
tp18
a(I23
VJVT
p19
tp20
a.